; Function Attrs: null_pointer_is_valid sspstrong uwtable
define internal fastcc void @listOfCard32(ptr noundef %0, ptr noundef captures(none) %1, ptr noundef %2, i32 noundef %3, i32 noundef %4, i32 noundef %5, i32 noundef %6) unnamed_addr #1 {
  %8 = load i32, ptr %1, align 4
  %9 = shl i32 %5, 2
  %10 = tail call ptr @proto_tree_add_item(ptr noundef %2, i32 noundef %3, ptr noundef %0, i32 noundef %8, i32 noundef %9, i32 noundef %6)
  %11 = load i32, ptr @ett_x11_list_of_card32, align 4
  %12 = tail call ptr @proto_item_add_subtree(ptr noundef %10, i32 noundef %11)
  %.not13 = icmp eq i32 %5, 0
  br i1 %.not13, label %._crit_edge, label %.lr.ph.preheader

.lr.ph.preheader:                                 ; preds = %7
  %.pre = load i32, ptr %1, align 4
  br label %.lr.ph

.lr.ph:                                           ; preds = %.lr.ph.preheader, %.lr.ph
  %13 = phi i32 [ %17, %.lr.ph ], [ %.pre, %.lr.ph.preheader ]
  %.014 = phi i32 [ %14, %.lr.ph ], [ %5, %.lr.ph.preheader ]
  %14 = add i32 %.014, -1
  %15 = tail call ptr @proto_tree_add_item(ptr noundef %12, i32 noundef %4, ptr noundef %0, i32 noundef %13, i32 noundef 4, i32 noundef %6)
  %16 = load i32, ptr %1, align 4
  %17 = add i32 %16, 4
  store i32 %17, ptr %1, align 4
  %.not = icmp eq i32 %14, 0
  br i1 %.not, label %._crit_edge, label %.lr.ph, !llvm.loop !44

._crit_edge:                                      ; preds = %.lr.ph, %7
  ret void
}